 zoic

 Timestamp is 56ccd827 (Tue Feb 23 22:07:35 2016)

 Preferred load address is 0000000180000000

 Start         Length     Name                   Class
 0001:00000000 00004b5fH .text                   CODE
 0001:00004b60 0000030cH .text$x                 CODE
 0002:00000000 00000280H .idata$5                DATA
 0002:00000280 00000008H .CRT$XCA                DATA
 0002:00000288 00000008H .CRT$XCZ                DATA
 0002:00000290 00000008H .CRT$XIA                DATA
 0002:00000298 00000008H .CRT$XIAA               DATA
 0002:000002a0 00000008H .CRT$XIZ                DATA
 0002:000002b0 0000069cH .rdata                  DATA
 0002:0000094c 00000063H .rdata$debug            DATA
 0002:000009b0 00000144H .rdata$r                DATA
 0002:00000af8 00000008H .rtc$IAA                DATA
 0002:00000b00 00000008H .rtc$IZZ                DATA
 0002:00000b08 00000008H .rtc$TAA                DATA
 0002:00000b10 00000008H .rtc$TZZ                DATA
 0002:00000b18 000008c4H .xdata                  DATA
 0002:000013e0 00000084H .xdata$x                DATA
 0002:00001464 00000064H .idata$2                DATA
 0002:000014c8 00000014H .idata$3                DATA
 0002:000014e0 00000280H .idata$4                DATA
 0002:00001760 00000886H .idata$6                DATA
 0002:00001ff0 00000046H .edata                  DATA
 0003:00000000 000000d0H .data                   DATA
 0003:000000d0 000005d0H .bss                    DATA
 0004:00000000 00000474H .pdata                  DATA

  Address         Publics by Value              Rva+Base               Lib:Object

 0000:00000000       ___safe_se_handler_count   0000000000000000     <absolute>
 0000:00000000       ___safe_se_handler_table   0000000000000000     <absolute>
 0000:00000000       __ImageBase                0000000180000000     <linker-defined>
 0001:00000000       ??1bad_alloc@std@@UEAA@XZ  0000000180001000 f i zoic.obj
 0001:00000020       ??_Gbad_alloc@std@@UEAAPEAXI@Z 0000000180001020 f i zoic.obj
 0001:00000020       ??_Ebad_alloc@std@@UEAAPEAXI@Z 0000000180001020 f i  CIL library: CIL module
 0001:00000060       ?ConcentricSampleDisk@@YAXMMPEAM0@Z 0000000180001060 f i zoic.obj
 0001:00000160       ?readImage@@YAPEAUimageData@@PEBD@Z 0000000180001160 f   zoic.obj
 0001:00000520       ?bokehProbability@@YAXPEAUimageData@@@Z 0000000180001520 f   zoic.obj
 0001:00001330       ?bokehSample@@YAXPEAUimageData@@MMPEAM1@Z 0000000180002330 f   zoic.obj
 0001:00001f80       NodeLoader                 0000000180002f80 f   zoic.obj
 0001:00001fc0       ??1?$basic_string@DU?$char_traits@D@std@@V?$allocator@D@2@@std@@QEAA@XZ 0000000180002fc0 f i zoic.obj
 0001:00002000       ?reserve@?$vector@EV?$allocator@E@std@@@std@@QEAAX_K@Z 0000000180003000 f i zoic.obj
 0001:000020f0       ??1?$vector@HV?$allocator@H@std@@@std@@QEAA@XZ 00000001800030f0 f i zoic.obj
 0001:000020f0       ??1?$vector@MV?$allocator@M@std@@@std@@QEAA@XZ 00000001800030f0 f i zoic.obj
 0001:00002120       ?resize@?$vector@MV?$allocator@M@std@@@std@@QEAAX_K@Z 0000000180003120 f i zoic.obj
 0001:00002120       ?resize@?$vector@HV?$allocator@H@std@@@std@@QEAAX_K@Z 0000000180003120 f i zoic.obj
 0001:00002240       ?assign@?$basic_string@DU?$char_traits@D@std@@V?$allocator@D@2@@std@@QEAAAEAV12@AEBV12@_K1@Z 0000000180003240 f i zoic.obj
 0001:00002300       ?assign@?$basic_string@DU?$char_traits@D@std@@V?$allocator@D@2@@std@@QEAAAEAV12@PEBD_K@Z 0000000180003300 f i zoic.obj
 0001:00002430       ?allocate@?$allocator@D@std@@QEAAPEAD_K@Z 0000000180003430 f i zoic.obj
 0001:00002490       ??1sentry@?$basic_ostream@DU?$char_traits@D@std@@@std@@QEAA@XZ 0000000180003490 f i zoic.obj
 0001:000024e0       ?erase@?$basic_string@DU?$char_traits@D@std@@V?$allocator@D@2@@std@@QEAAAEAV12@_K0@Z 00000001800034e0 f i zoic.obj
 0001:00002580       ?_Grow@?$basic_string@DU?$char_traits@D@std@@V?$allocator@D@2@@std@@QEAA_N_K_N@Z 0000000180003580 f i zoic.obj
 0001:000025f0       ?reserve@?$vector@MV?$allocator@M@std@@@std@@QEAAX_K@Z 00000001800035f0 f i zoic.obj
 0001:000025f0       ?reserve@?$vector@HV?$allocator@H@std@@@std@@QEAAX_K@Z 00000001800035f0 f i zoic.obj
 0001:000026b0       ??1_Sentry_base@?$basic_ostream@DU?$char_traits@D@std@@@std@@QEAA@XZ 00000001800036b0 f i zoic.obj
 0001:000026e0       ?_Copy@?$basic_string@DU?$char_traits@D@std@@V?$allocator@D@2@@std@@QEAAX_K0@Z 00000001800036e0 f i zoic.obj
 0001:00002820       ?allocate@?$allocator@M@std@@QEAAPEAM_K@Z 0000000180003820 f i zoic.obj
 0001:00002820       ?allocate@?$allocator@H@std@@QEAAPEAH_K@Z 0000000180003820 f i zoic.obj
 0001:00002890       ??$?6U?$char_traits@D@std@@@std@@YAAEAV?$basic_ostream@DU?$char_traits@D@std@@@0@AEAV10@PEBD@Z 0000000180003890 f i zoic.obj
 0001:00002a60       ??0bad_alloc@std@@QEAA@AEBV01@@Z 0000000180003a60 f i zoic.obj
 0001:00002a90       ??$_Sort@PEAH_JV<lambda0>@?A0x445b675e@@@std@@YAXPEAH0_JV<lambda0>@?A0x445b675e@@@Z 0000000180003a90 f i zoic.obj
 0001:00002bf0       ??$_Sort@PEAH_JV<lambda1>@?A0x445b675e@@@std@@YAXPEAH0_JV<lambda1>@?A0x445b675e@@@Z 0000000180003bf0 f i zoic.obj
 0001:00002d50       ?_Construct_n@?$vector@HV?$allocator@H@std@@@std@@QEAAX_KPEBH@Z 0000000180003d50 f i zoic.obj
 0001:00002d50       ?_Construct_n@?$vector@MV?$allocator@M@std@@@std@@QEAAX_KPEBM@Z 0000000180003d50 f i zoic.obj
 0001:00002df0       ??$_Unguarded_partition@PEAHV<lambda0>@?A0x445b675e@@@std@@YA?AU?$pair@PEAHPEAH@0@PEAH0V<lambda0>@?A0x445b675e@@@Z 0000000180003df0 f i zoic.obj
 0001:00003240       ??$_Unguarded_partition@PEAHV<lambda1>@?A0x445b675e@@@std@@YA?AU?$pair@PEAHPEAH@0@PEAH0V<lambda1>@?A0x445b675e@@@Z 0000000180004240 f i zoic.obj
 0001:00003690       ??$_Median@PEAHV<lambda0>@?A0x445b675e@@@std@@YAXPEAH00V<lambda0>@?A0x445b675e@@@Z 0000000180004690 f i zoic.obj
 0001:000038e0       ??$_Make_heap@PEAH_JHV<lambda0>@?A0x445b675e@@@std@@YAXPEAH0V<lambda0>@?A0x445b675e@@PEA_J0@Z 00000001800048e0 f i zoic.obj
 0001:00003a00       ??$_Insertion_sort1@PEAHV<lambda0>@?A0x445b675e@@H@std@@YAXPEAH0V<lambda0>@?A0x445b675e@@0@Z 0000000180004a00 f i zoic.obj
 0001:00003ae0       ??$_Median@PEAHV<lambda1>@?A0x445b675e@@@std@@YAXPEAH00V<lambda1>@?A0x445b675e@@@Z 0000000180004ae0 f i zoic.obj
 0001:00003bc0       ??$_Make_heap@PEAH_JHV<lambda1>@?A0x445b675e@@@std@@YAXPEAH0V<lambda1>@?A0x445b675e@@PEA_J0@Z 0000000180004bc0 f i zoic.obj
 0001:00003ce0       ??$_Insertion_sort1@PEAHV<lambda1>@?A0x445b675e@@H@std@@YAXPEAH0V<lambda1>@?A0x445b675e@@0@Z 0000000180004ce0 f i zoic.obj
 0001:00003dd0       ??$_Med3@PEAHV<lambda1>@?A0x445b675e@@@std@@YAXPEAH00V<lambda1>@?A0x445b675e@@@Z 0000000180004dd0 f i zoic.obj
 0001:00003e60       ??$_Pop_heap_0@PEAHHV<lambda0>@?A0x445b675e@@@std@@YAXPEAH0V<lambda0>@?A0x445b675e@@0@Z 0000000180004e60 f i zoic.obj
 0001:00003f30       ??$_Pop_heap_0@PEAHHV<lambda1>@?A0x445b675e@@@std@@YAXPEAH0V<lambda1>@?A0x445b675e@@0@Z 0000000180004f30 f i zoic.obj
 0001:00004020       __security_check_cookie    0000000180005020 f   MSVCRT:amdsecgs.obj
 0001:00004040       ?what@exception@std@@UEBAPEBDXZ 0000000180005040 f   MSVCRT:MSVCR100.dll
 0001:00004046       ??0exception@std@@QEAA@AEBV01@@Z 0000000180005046 f   MSVCRT:MSVCR100.dll
 0001:0000404c       ??3@YAXPEAX@Z              000000018000504c f   MSVCRT:MSVCR100.dll
 0001:00004054       ??_Etype_info@@UEAAPEAXI@Z 0000000180005054 f i MSVCRT:ti_inst.obj
 0001:00004120       _CRT_INIT                  0000000180005120 f   MSVCRT:crtdll.obj
 0001:000044b8       _DllMainCRTStartup         00000001800054b8 f   MSVCRT:crtdll.obj
 0001:000044f8       __report_gsfailure         00000001800054f8 f   MSVCRT:gs_report.obj
 0001:00004644       ?__ArrayUnwind@@YAXPEAX_KHP6AX0@Z@Z 0000000180005644 f   MSVCRT:ehvecdtr.obj
 0001:00004690       ??_M@YAXPEAX_KHP6AX0@Z@Z   0000000180005690 f   MSVCRT:ehvecdtr.obj
 0001:000046f0       __clean_type_info_names    00000001800056f0 f   MSVCRT:tncleanup.obj
 0001:000046fc       _onexit                    00000001800056fc f   MSVCRT:atonexit.obj
 0001:000047ac       atexit                     00000001800057ac f   MSVCRT:atonexit.obj
 0001:000047c4       _RTC_Initialize            00000001800057c4 f   MSVCRT:_initsect_.obj
 0001:000047fc       _RTC_Terminate             00000001800057fc f   MSVCRT:_initsect_.obj
 0001:00004840       _ValidateImageBase         0000000180005840 f   MSVCRT:pesect.obj
 0001:00004870       _FindPESection             0000000180005870 f   MSVCRT:pesect.obj
 0001:000048c0       _IsNonwritableInCurrentImage 00000001800058c0 f   MSVCRT:pesect.obj
 0001:00004902       _initterm                  0000000180005902 f   MSVCRT:MSVCR100.dll
 0001:00004908       _initterm_e                0000000180005908 f   MSVCRT:MSVCR100.dll
 0001:0000490e       _amsg_exit                 000000018000590e f   MSVCRT:MSVCR100.dll
 0001:00004914       __C_specific_handler       0000000180005914 f   MSVCRT:MSVCR100.dll
 0001:0000491a       __CppXcptFilter            000000018000591a f   MSVCRT:MSVCR100.dll
 0001:00004920       DllMain                    0000000180005920 f   MSVCRT:dllmain.obj
 0001:00004944       __security_init_cookie     0000000180005944 f   MSVCRT:gs_support.obj
 0001:000049f8       __crt_debugger_hook        00000001800059f8 f   MSVCRT:MSVCR100.dll
 0001:000049fe       ?terminate@@YAXXZ          00000001800059fe f   MSVCRT:MSVCR100.dll
 0001:00004a04       ??1type_info@@UEAA@XZ      0000000180005a04 f   MSVCRT:MSVCR100.dll
 0001:00004a04       ?_type_info_dtor_internal_method@type_info@@QEAAXXZ 0000000180005a04 f   MSVCRT:MSVCR100.dll
 0001:00004a0a       __clean_type_info_names_internal 0000000180005a0a f   MSVCRT:MSVCR100.dll
 0001:00004a10       _unlock                    0000000180005a10 f   MSVCRT:MSVCR100.dll
 0001:00004a16       __dllonexit                0000000180005a16 f   MSVCRT:MSVCR100.dll
 0001:00004a1c       _lock                      0000000180005a1c f   MSVCRT:MSVCR100.dll
 0001:00004a22       RtlVirtualUnwind           0000000180005a22 f   kernel32:KERNEL32.dll
 0001:00004a28       RtlLookupFunctionEntry     0000000180005a28 f   kernel32:KERNEL32.dll
 0001:00004a2e       memset                     0000000180005a2e f   MSVCRT:MSVCR100.dll
 0001:00004a34       __CxxFrameHandler3         0000000180005a34 f   MSVCRT:MSVCR100.dll
 0001:00004a3a       memcpy                     0000000180005a3a f   MSVCRT:MSVCR100.dll
 0001:00004a40       sqrtf                      0000000180005a40 f   MSVCRT:MSVCR100.dll
 0001:00004a46       sinf                       0000000180005a46 f   MSVCRT:MSVCR100.dll
 0001:00004a4c       cosf                       0000000180005a4c f   MSVCRT:MSVCR100.dll
 0001:00004a52       atanf                      0000000180005a52 f   MSVCRT:MSVCR100.dll
 0001:00004a58       _CxxThrowException         0000000180005a58 f   MSVCRT:MSVCR100.dll
 0001:00004a5e       sqrt                       0000000180005a5e f   MSVCRT:MSVCR100.dll
 0001:00004a64       __GSHandlerCheck_EH        0000000180005a64 f   MSVCRT:gshandlereh.obj
 0001:00004af4       tanf                       0000000180005af4 f   MSVCRT:MSVCR100.dll
 0001:00004afc       __GSHandlerCheckCommon     0000000180005afc f   MSVCRT:gshandler.obj
 0002:00000000       __imp_GetTickCount         0000000180006000     kernel32:KERNEL32.dll
 0002:00000008       __imp_DisableThreadLibraryCalls 0000000180006008     kernel32:KERNEL32.dll
 0002:00000010       __imp_RtlCaptureContext    0000000180006010     kernel32:KERNEL32.dll
 0002:00000018       __imp_RtlLookupFunctionEntry 0000000180006018     kernel32:KERNEL32.dll
 0002:00000020       __imp_RtlVirtualUnwind     0000000180006020     kernel32:KERNEL32.dll
 0002:00000028       __imp_IsDebuggerPresent    0000000180006028     kernel32:KERNEL32.dll
 0002:00000030       __imp_SetUnhandledExceptionFilter 0000000180006030     kernel32:KERNEL32.dll
 0002:00000038       __imp_UnhandledExceptionFilter 0000000180006038     kernel32:KERNEL32.dll
 0002:00000040       __imp_GetCurrentProcess    0000000180006040     kernel32:KERNEL32.dll
 0002:00000048       __imp_TerminateProcess     0000000180006048     kernel32:KERNEL32.dll
 0002:00000050       __imp_GetSystemTimeAsFileTime 0000000180006050     kernel32:KERNEL32.dll
 0002:00000058       __imp_GetCurrentProcessId  0000000180006058     kernel32:KERNEL32.dll
 0002:00000060       __imp_GetCurrentThreadId   0000000180006060     kernel32:KERNEL32.dll
 0002:00000068       __imp_Sleep                0000000180006068     kernel32:KERNEL32.dll
 0002:00000070       __imp_DecodePointer        0000000180006070     kernel32:KERNEL32.dll
 0002:00000078       __imp_EncodePointer        0000000180006078     kernel32:KERNEL32.dll
 0002:00000080       __imp_QueryPerformanceCounter 0000000180006080     kernel32:KERNEL32.dll
 0002:00000088       \177KERNEL32_NULL_THUNK_DATA 0000000180006088     kernel32:KERNEL32.dll
 0002:00000090       __imp_?_Osfx@?$basic_ostream@DU?$char_traits@D@std@@@std@@QEAAXXZ 0000000180006090     msvcprt:MSVCP100.dll
 0002:00000098       __imp_?sputn@?$basic_streambuf@DU?$char_traits@D@std@@@std@@QEAA_JPEBD_J@Z 0000000180006098     msvcprt:MSVCP100.dll
 0002:000000a0       __imp_?sputc@?$basic_streambuf@DU?$char_traits@D@std@@@std@@QEAAHD@Z 00000001800060a0     msvcprt:MSVCP100.dll
 0002:000000a8       __imp_?flush@?$basic_ostream@DU?$char_traits@D@std@@@std@@QEAAAEAV12@XZ 00000001800060a8     msvcprt:MSVCP100.dll
 0002:000000b0       __imp_??6?$basic_ostream@DU?$char_traits@D@std@@@std@@QEAAAEAV01@M@Z 00000001800060b0     msvcprt:MSVCP100.dll
 0002:000000b8       __imp_??6?$basic_ostream@DU?$char_traits@D@std@@@std@@QEAAAEAV01@H@Z 00000001800060b8     msvcprt:MSVCP100.dll
 0002:000000c0       __imp_??6?$basic_ostream@DU?$char_traits@D@std@@@std@@QEAAAEAV01@P6AAEAV01@AEAV01@@Z@Z 00000001800060c0     msvcprt:MSVCP100.dll
 0002:000000c8       __imp_?setstate@?$basic_ios@DU?$char_traits@D@std@@@std@@QEAAXH_N@Z 00000001800060c8     msvcprt:MSVCP100.dll
 0002:000000d0       __imp_?endl@std@@YAAEAV?$basic_ostream@DU?$char_traits@D@std@@@1@AEAV21@@Z 00000001800060d0     msvcprt:MSVCP100.dll
 0002:000000d8       __imp_?uncaught_exception@std@@YA_NXZ 00000001800060d8     msvcprt:MSVCP100.dll
 0002:000000e0       __imp_?_Xout_of_range@std@@YAXPEBD@Z 00000001800060e0     msvcprt:MSVCP100.dll
 0002:000000e8       __imp_?_Xlength_error@std@@YAXPEBD@Z 00000001800060e8     msvcprt:MSVCP100.dll
 0002:000000f0       __imp_?cout@std@@3V?$basic_ostream@DU?$char_traits@D@std@@@1@A 00000001800060f0     msvcprt:MSVCP100.dll
 0002:000000f8       \177MSVCP100_NULL_THUNK_DATA 00000001800060f8     msvcprt:MSVCP100.dll
 0002:00000100       __imp_??0exception@std@@QEAA@AEBV01@@Z 0000000180006100     MSVCRT:MSVCR100.dll
 0002:00000108       __imp_??3@YAXPEAX@Z        0000000180006108     MSVCRT:MSVCR100.dll
 0002:00000110       __imp_exit                 0000000180006110     MSVCRT:MSVCR100.dll
 0002:00000118       __imp_tanf                 0000000180006118     MSVCRT:MSVCR100.dll
 0002:00000120       __imp__malloc_crt          0000000180006120     MSVCRT:MSVCR100.dll
 0002:00000128       __imp__initterm            0000000180006128     MSVCRT:MSVCR100.dll
 0002:00000130       __imp__initterm_e          0000000180006130     MSVCRT:MSVCR100.dll
 0002:00000138       __imp_free                 0000000180006138     MSVCRT:MSVCR100.dll
 0002:00000140       __imp__encoded_null        0000000180006140     MSVCRT:MSVCR100.dll
 0002:00000148       __imp__amsg_exit           0000000180006148     MSVCRT:MSVCR100.dll
 0002:00000150       __imp___C_specific_handler 0000000180006150     MSVCRT:MSVCR100.dll
 0002:00000158       __imp___CppXcptFilter      0000000180006158     MSVCRT:MSVCR100.dll
 0002:00000160       __imp___crt_debugger_hook  0000000180006160     MSVCRT:MSVCR100.dll
 0002:00000168       __imp_?terminate@@YAXXZ    0000000180006168     MSVCRT:MSVCR100.dll
 0002:00000170       __imp_?_type_info_dtor_internal_method@type_info@@QEAAXXZ 0000000180006170     MSVCRT:MSVCR100.dll
 0002:00000178       __imp___clean_type_info_names_internal 0000000180006178     MSVCRT:MSVCR100.dll
 0002:00000180       __imp__unlock              0000000180006180     MSVCRT:MSVCR100.dll
 0002:00000188       __imp___dllonexit          0000000180006188     MSVCRT:MSVCR100.dll
 0002:00000190       __imp__lock                0000000180006190     MSVCRT:MSVCR100.dll
 0002:00000198       __imp__onexit              0000000180006198     MSVCRT:MSVCR100.dll
 0002:000001a0       __imp_??0exception@std@@QEAA@AEBQEBD@Z 00000001800061a0     MSVCRT:MSVCR100.dll
 0002:000001a8       __imp_??1exception@std@@UEAA@XZ 00000001800061a8     MSVCRT:MSVCR100.dll
 0002:000001b0       __imp_memmove              00000001800061b0     MSVCRT:MSVCR100.dll
 0002:000001b8       __imp_memset               00000001800061b8     MSVCRT:MSVCR100.dll
 0002:000001c0       __imp___CxxFrameHandler3   00000001800061c0     MSVCRT:MSVCR100.dll
 0002:000001c8       __imp_memcpy               00000001800061c8     MSVCRT:MSVCR100.dll
 0002:000001d0       __imp_sqrtf                00000001800061d0     MSVCRT:MSVCR100.dll
 0002:000001d8       __imp_sinf                 00000001800061d8     MSVCRT:MSVCR100.dll
 0002:000001e0       __imp_cosf                 00000001800061e0     MSVCRT:MSVCR100.dll
 0002:000001e8       __imp_atanf                00000001800061e8     MSVCRT:MSVCR100.dll
 0002:000001f0       __imp__CxxThrowException   00000001800061f0     MSVCRT:MSVCR100.dll
 0002:000001f8       __imp_sqrt                 00000001800061f8     MSVCRT:MSVCR100.dll
 0002:00000200       __imp_?what@exception@std@@UEBAPEBDXZ 0000000180006200     MSVCRT:MSVCR100.dll
 0002:00000208       __imp_??2@YAPEAX_K@Z       0000000180006208     MSVCRT:MSVCR100.dll
 0002:00000210       \177MSVCR100_NULL_THUNK_DATA 0000000180006210     MSVCRT:MSVCR100.dll
 0002:00000218       __imp_??0TypeDesc@v1_5@OpenImageIO@@QEAA@W4BASETYPE@012@W4AGGREGATE@012@W4VECSEMANTICS@012@@Z 0000000180006218     OpenImageIO:OpenImageIO.dll
 0002:00000220       __imp_?open@ImageInput@v1_5@OpenImageIO@@SAPEAV123@AEBV?$basic_string@DU?$char_traits@D@std@@V?$allocator@D@2@@std@@PEBVImageSpec@23@@Z 0000000180006220     OpenImageIO:OpenImageIO.dll
 0002:00000228       \177OpenImageIO_NULL_THUNK_DATA 0000000180006228     OpenImageIO:OpenImageIO.dll
 0002:00000230       __imp_AiNodeParamBool      0000000180006230     ai:ai.dll
 0002:00000238       __imp_AiMsgError           0000000180006238     ai:ai.dll
 0002:00000240       __imp_AiCameraDestroy      0000000180006240     ai:ai.dll
 0002:00000248       __imp_AiNodeParamStr       0000000180006248     ai:ai.dll
 0002:00000250       __imp_AiCameraInitialize   0000000180006250     ai:ai.dll
 0002:00000258       __imp_AiNodeParamFlt       0000000180006258     ai:ai.dll
 0002:00000260       __imp_AiCameraUpdate       0000000180006260     ai:ai.dll
 0002:00000268       __imp_AiMsgInfo            0000000180006268     ai:ai.dll
 0002:00000270       __imp_AiNodeGetParams      0000000180006270     ai:ai.dll
 0002:00000278       \177ai_NULL_THUNK_DATA     0000000180006278     ai:ai.dll
 0002:00000280       __xc_a                     0000000180006280     MSVCRT:cinitexe.obj
 0002:00000288       __xc_z                     0000000180006288     MSVCRT:cinitexe.obj
 0002:00000290       __xi_a                     0000000180006290     MSVCRT:cinitexe.obj
 0002:000002a0       __xi_z                     00000001800062a0     MSVCRT:cinitexe.obj
 0002:000002d8       ??_7type_info@@6B@         00000001800062d8     MSVCRT:ti_inst.obj
 0002:000002e0       _pRawDllMain               00000001800062e0     MSVCRT:crtdll.obj
 0002:000002e0       _pDefaultRawDllMain        00000001800062e0     MSVCRT:crtdll.obj
 0002:000002f8       ??_C@_00CNPNBAHC@?$AA@     00000001800062f8     zoic.obj
 0002:00000300       ??_C@_0CE@PHFFMKH@Reading?5image?5using?5OpenImageIO?3@ 0000000180006300     zoic.obj
 0002:00000328       ??_C@_0BA@HNNDAFMG@Image?5Width?3?5?$CFd?$AA@ 0000000180006328     zoic.obj
 0002:00000338       ??_C@_0BB@OCGOIMF@Image?5Height?3?5?$CFd?$AA@ 0000000180006338     zoic.obj
 0002:00000350       ??_C@_0BD@OHCJDINP@Image?5Channels?3?5?$CFd?$AA@ 0000000180006350     zoic.obj
 0002:00000368       ??_C@_0CG@EOONGDAJ@Total?5amount?5of?5pixels?5to?5proces@ 0000000180006368     zoic.obj
 0002:00000390       ??_C@_01OHGJGJJP@?$FL?$AA@ 0000000180006390     zoic.obj
 0002:00000394       ??_C@_02KEGNLNML@?0?5?$AA@ 0000000180006394     zoic.obj
 0002:00000398       ??_C@_03EDAPGMLK@?$FN?0?5?$AA@ 0000000180006398     zoic.obj
 0002:000003a0       ??_C@_0CP@JMJOGMBP@?9?9?9?9?9?9?9?9?9?9?9?9?9?9?9?9?9?9?9?9?9?9?9?9?9?9?9?9?9?9?9?9@ 00000001800063a0     zoic.obj
 0002:000003d0       ??_C@_04BBDFLMDN@?5?9?$DO?5?$AA@ 00000001800063d0     zoic.obj
 0002:000003d8       ??_C@_0BC@MIKCEJD@Pixel?5Luminance?3?5?$AA@ 00000001800063d8     zoic.obj
 0002:000003f0       ??_C@_0BL@NAEANHHB@DEBUG?3?5Total?5Pixel?5Value?3?5?$AA@ 00000001800063f0     zoic.obj
 0002:0000040c       ??_C@_02LMMGGCAJ@?3?5?$AA@ 000000018000640c     zoic.obj
 0002:00000410       ??_C@_0BJ@KCJBGAHB@Normalized?5Pixel?5Value?3?5?$AA@ 0000000180006410     zoic.obj
 0002:00000430       ??_C@_0CG@PENOGCFD@DEBUG?3?5Total?5Normalized?5Pixel?5Va@ 0000000180006430     zoic.obj
 0002:00000458       ??_C@_03FLKELDHI@?$FN?3?5?$AA@ 0000000180006458     zoic.obj
 0002:00000460       ??_C@_0BE@JODOAKIJ@Summed?5Values?5row?5?$FL?$AA@ 0000000180006460     zoic.obj
 0002:00000478       ??_C@_0BK@EEKJIEMO@Debug?3?5Summed?5Row?5Value?3?5?$AA@ 0000000180006478     zoic.obj
 0002:00000498       ??_C@_09MMDCKHDA@PDF?5row?5?$FL?$AA@ 0000000180006498     zoic.obj
 0002:000004a8       ??_C@_09KLJNNL@CDF?5row?5?$FL?$AA@ 00000001800064a8     zoic.obj
 0002:000004b8       ??_C@_0CB@PFMHEOIM@Normalized?5Pixel?5value?5per?5row?3?5@ 00000001800064b8     zoic.obj
 0002:000004e0       ??_C@_0N@BLEBJGNJ@PDF?5column?5?$FL?$AA@ 00000001800064e0     zoic.obj
 0002:000004f0       ??_C@_0N@BCIMFMMN@CDF?5column?5?$FL?$AA@ 00000001800064f0     zoic.obj
 0002:00000500       ??_C@_0BE@PKAHBIIA@RANDOM?5NUMBER?5ROW?3?5?$AA@ 0000000180006500     zoic.obj
 0002:00000518       ??_C@_0O@OKGHBLCM@UPPER?5BOUND?3?5?$AA@ 0000000180006518     zoic.obj
 0002:00000528       ??_C@_0BD@CBCMGFIJ@INDEX?5IN?5CDF?5ROW?3?5?$AA@ 0000000180006528     zoic.obj
 0002:00000540       ??_C@_0BD@KAELLCFN@ACTUAL?5PIXEL?5ROW?3?5?$AA@ 0000000180006540     zoic.obj
 0002:00000558       ??_C@_0BJ@CBDKCJOF@RECALCULATED?5PIXEL?5ROW?3?5?$AA@ 0000000180006558     zoic.obj
 0002:00000578       ??_C@_0BH@HMJLONBP@RANDOM?5NUMBER?5COLUMN?3?5?$AA@ 0000000180006578     zoic.obj
 0002:00000590       ??_C@_0O@JMMGDDNM@START?5PIXEL?3?5?$AA@ 0000000180006590     zoic.obj
 0002:000005a0       ??_C@_0BG@EFGHCILA@INDEX?5IN?5CDF?5COLUMN?3?5?$AA@ 00000001800065a0     zoic.obj
 0002:000005b8       ??_C@_0BG@NCEIBCPO@ACTUAL?5PIXEL?5COLUMN?3?5?$AA@ 00000001800065b8     zoic.obj
 0002:000005d0       ??_C@_0CK@PJHEPEHM@RELATIVE?5PIXEL?5COLUMN?5?$CIstarting?5@ 00000001800065d0     zoic.obj
 0002:00000600       ??_C@_0BM@KMLCKPKM@RECALCULATED?5PIXEL?5COLUMN?3?5?$AA@ 0000000180006600     zoic.obj
 0002:00000620       ??_C@_0M@ENHAIECM@sensorWidth?$AA@ 0000000180006620     zoic.obj
 0002:00000630       ??_C@_0N@CFKOLAAJ@sensorHeight?$AA@ 0000000180006630     zoic.obj
 0002:00000640       ??_C@_0M@NDFIKLLH@focalLength?$AA@ 0000000180006640     zoic.obj
 0002:0000064c       ??_C@_06GEPNNHAJ@useDof?$AA@ 000000018000664c     zoic.obj
 0002:00000654       ??_C@_05GHMKMFCA@fStop?$AA@ 0000000180006654     zoic.obj
 0002:00000660       ??_C@_0O@FKMMAGJO@focalDistance?$AA@ 0000000180006660     zoic.obj
 0002:00000670       ??_C@_0BC@PHFABICL@opticalVignetting?$AA@ 0000000180006670     zoic.obj
 0002:00000688       ??_C@_0P@EBOICHPP@highlightWidth?$AA@ 0000000180006688     zoic.obj
 0002:00000698       ??_C@_0BC@GLDHPKIG@highlightStrength?$AA@ 0000000180006698     zoic.obj
 0002:000006b0       ??_C@_08MHOOKCID@useImage?$AA@ 00000001800066b0     zoic.obj
 0002:000006c0       ??_C@_09LPEACBKH@bokehPath?$AA@ 00000001800066c0     zoic.obj
 0002:000006d0       ??_C@_0BA@MNDJGDED@exposureControl?$AA@ 00000001800066d0     zoic.obj
 0002:000006e0       ??_C@_0DH@MEHHCBLM@Couldn?8t?5open?5image?0?5please?5chec@ 00000001800066e0     zoic.obj
 0002:00000718       ??_C@_04OACMNPBC@zoic?$AA@ 0000000180006718     zoic.obj
 0002:00000720       ??_C@_08JNENEEFB@4?42?412?42?$AA@ 0000000180006720     zoic.obj
 0002:00000730       ??_C@_0BD@OLBABOEK@vector?$DMT?$DO?5too?5long?$AA@ 0000000180006730     zoic.obj
 0002:00000748       ??_C@_0BA@JFNIOLAK@string?5too?5long?$AA@ 0000000180006748     zoic.obj
 0002:00000758       ??_C@_0BI@CFPLBAOH@invalid?5string?5position?$AA@ 0000000180006758     zoic.obj
 0002:00000778       ??_7bad_alloc@std@@6B@     0000000180006778     zoic.obj
 0002:000007b0       __real@41200000            00000001800067b0      CIL library: CIL module
 0002:000007b4       __real@3e4ccccd            00000001800067b4      CIL library: CIL module
 0002:000007b8       __real@41a00000            00000001800067b8      CIL library: CIL module
 0002:000007bc       __real@42dc0000            00000001800067bc      CIL library: CIL module
 0002:000007c0       __real@3fb33333            00000001800067c0      CIL library: CIL module
 0002:000007c4       __real@42820000            00000001800067c4      CIL library: CIL module
 0002:000007c8       __real@4019999a            00000001800067c8      CIL library: CIL module
 0002:000007cc       __real@40666666            00000001800067cc      CIL library: CIL module
 0002:000007d0       __mask@@AbsDouble@         00000001800067d0      CIL library: CIL module
 0002:00000858       __real@bf800000            0000000180006858      CIL library: CIL module
 0002:0000085c       __real@40000000            000000018000685c      CIL library: CIL module
 0002:00000860       __real@3f490fdb            0000000180006860      CIL library: CIL module
 0002:00000864       __real@40c00000            0000000180006864      CIL library: CIL module
 0002:00000868       __real@40800000            0000000180006868      CIL library: CIL module
 0002:0000086c       __real@41000000            000000018000686c      CIL library: CIL module
 0002:00000870       __mask@@NegFloat@          0000000180006870      CIL library: CIL module
 0002:00000880       __real@3f800000            0000000180006880      CIL library: CIL module
 0002:000008b0       __real@3ff0000000000000    00000001800068b0      CIL library: CIL module
 0002:000008e0       __real@3de147ae            00000001800068e0      CIL library: CIL module
 0002:000008e8       __real@3fd3333333333333    00000001800068e8      CIL library: CIL module
 0002:000008f0       __real@3fe2e147ae147ae1    00000001800068f0      CIL library: CIL module
 0002:00000948       __real@3f000000            0000000180006948      CIL library: CIL module
 0002:000009b0       ??_R4type_info@@6B@        00000001800069b0     MSVCRT:ti_inst.obj
 0002:000009d8       ??_R3type_info@@8          00000001800069d8     MSVCRT:ti_inst.obj
 0002:000009f0       ??_R2type_info@@8          00000001800069f0     MSVCRT:ti_inst.obj
 0002:00000a00       ??_R1A@?0A@EA@type_info@@8 0000000180006a00     MSVCRT:ti_inst.obj
 0002:00000a28       ??_R4bad_alloc@std@@6B@    0000000180006a28     zoic.obj
 0002:00000a50       ??_R3bad_alloc@std@@8      0000000180006a50     zoic.obj
 0002:00000a68       ??_R2bad_alloc@std@@8      0000000180006a68     zoic.obj
 0002:00000a80       ??_R1A@?0A@EA@exception@std@@8 0000000180006a80     zoic.obj
 0002:00000aa8       ??_R3exception@std@@8      0000000180006aa8     zoic.obj
 0002:00000ac0       ??_R2exception@std@@8      0000000180006ac0     zoic.obj
 0002:00000ad0       ??_R1A@?0A@EA@bad_alloc@std@@8 0000000180006ad0     zoic.obj
 0002:00000af8       __rtc_iaa                  0000000180006af8     MSVCRT:_initsect_.obj
 0002:00000b00       __rtc_izz                  0000000180006b00     MSVCRT:_initsect_.obj
 0002:00000b08       __rtc_taa                  0000000180006b08     MSVCRT:_initsect_.obj
 0002:00000b10       __rtc_tzz                  0000000180006b10     MSVCRT:_initsect_.obj
 0002:000013e0       _CT??_R0?AVexception@std@@@8??0exception@std@@QEAA@AEBV01@@Z24 00000001800073e0     zoic.obj
 0002:00001408       _CT??_R0?AVbad_alloc@std@@@8??0bad_alloc@std@@QEAA@AEBV01@@Z24 0000000180007408     zoic.obj
 0002:00001430       _CTA2?AVbad_alloc@std@@    0000000180007430     zoic.obj
 0002:00001448       _TI2?AVbad_alloc@std@@     0000000180007448     zoic.obj
 0002:00001464       __IMPORT_DESCRIPTOR_ai     0000000180007464     ai:ai.dll
 0002:00001478       __IMPORT_DESCRIPTOR_OpenImageIO 0000000180007478     OpenImageIO:OpenImageIO.dll
 0002:0000148c       __IMPORT_DESCRIPTOR_MSVCP100 000000018000748c     msvcprt:MSVCP100.dll
 0002:000014a0       __IMPORT_DESCRIPTOR_MSVCR100 00000001800074a0     MSVCRT:MSVCR100.dll
 0002:000014b4       __IMPORT_DESCRIPTOR_KERNEL32 00000001800074b4     kernel32:KERNEL32.dll
 0002:000014c8       __NULL_IMPORT_DESCRIPTOR   00000001800074c8     ai:ai.dll
 0003:00000000       ??_R0?AVtype_info@@@8      0000000180009000     MSVCRT:ti_inst.obj
 0003:00000020       __security_cookie          0000000180009020     MSVCRT:gs_cookie.obj
 0003:00000028       __security_cookie_complement 0000000180009028     MSVCRT:gs_cookie.obj
 0003:00000030       __native_dllmain_reason    0000000180009030     MSVCRT:natstart.obj
 0003:00000034       __native_vcclrit_reason    0000000180009034     MSVCRT:natstart.obj
 0003:00000038       ??_R0?AVexception@std@@@8  0000000180009038     zoic.obj
 0003:00000098       ?zoicMethods@@3PEAUAtNodeMethods@@EA 0000000180009098     zoic.obj
 0003:000000a8       ??_R0?AVbad_alloc@std@@@8  00000001800090a8     zoic.obj
 0003:000000cc       _fltused                   00000001800090cc     MSVCRT:dllsupp.obj
 0003:00000650       ?__type_info_root_node@@3U__type_info_node@@A 0000000180009650     MSVCRT:tncleanup.obj
 0003:00000660       ?camera@@3UcameraData@@A   0000000180009660     zoic.obj
 0003:0000066c       ?debug@@3_NA               000000018000966c     zoic.obj
 0003:00000670       ?image@@3PEAUimageData@@EA 0000000180009670     zoic.obj
 0003:00000678       __native_startup_state     0000000180009678     <common>
 0003:00000680       __native_startup_lock      0000000180009680     <common>
 0003:00000688       __onexitend                0000000180009688     <common>
 0003:00000690       __onexitbegin              0000000180009690     <common>
 0003:00000698       __dyn_tls_init_callback    0000000180009698     <common>

 entry point at        0001:000044b8

 Static symbols

 0001:00001840       ?Parameters@@YAXPEAUAtList@@PEAUAtMetaDataStore@@@Z 0000000180002840 f    CIL library: CIL module
 0001:00001980       ?Initialize@@YAXPEAUAtNode@@PEATAtParamValue@@@Z 0000000180002980 f    CIL library: CIL module
 0001:00001990       ?Update@@YAXPEAUAtNode@@PEATAtParamValue@@@Z 0000000180002990 f    CIL library: CIL module
 0001:00001a60       ?Finish@@YAXPEAUAtNode@@@Z 0000000180002a60 f    CIL library: CIL module
 0001:00001a70       ?CameraCreateRay@@YAXPEBUAtNode@@PEBUAtCameraInput@@PEAUAtCameraOutput@@H@Z 0000000180002a70 f    CIL library: CIL module
 0001:000040c0       pre_c_init                 00000001800050c0 f   MSVCRT:crtdll.obj
 0001:0000437c       __DllMainCRTStartup        000000018000537c f   MSVCRT:crtdll.obj
 0001:00004b60       __DllMainCRTStartup$filt$0 0000000180005b60 f   MSVCRT:crtdll.obj
 0001:00004b90       __DllMainCRTStartup$fin$1  0000000180005b90 f   MSVCRT:crtdll.obj
 0001:00004baa       ?filt$0@?0??__ArrayUnwind@@YAXPEAX_KHP6AX0@Z@Z@4HA 0000000180005baa f   MSVCRT:ehvecdtr.obj
 0001:00004beb       ?fin$0@?0???_M@YAXPEAX_KHP6AX0@Z@Z@4HA 0000000180005beb f   MSVCRT:ehvecdtr.obj
 0001:00004c17       _onexit$fin$0              0000000180005c17 f   MSVCRT:atonexit.obj
 0001:00004c40       _IsNonwritableInCurrentImage$filt$0 0000000180005c40 f   MSVCRT:pesect.obj
 0001:00004c70       ?dtor$0@?0???1sentry@?$basic_ostream@DU?$char_traits@D@std@@@std@@QEAA@XZ@4HA 0000000180005c70 f    CIL library: CIL module
 0001:00004c80       ?dtor$1@?0???$?6U?$char_traits@D@std@@@std@@YAAEAV?$basic_ostream@DU?$char_traits@D@std@@@0@AEAV10@PEBD@Z@4HA 0000000180005c80 f    CIL library: CIL module
 0001:00004c90       ?dtor$0@?0???$?6U?$char_traits@D@std@@@std@@YAAEAV?$basic_ostream@DU?$char_traits@D@std@@@0@AEAV10@PEBD@Z@4HA 0000000180005c90 f    CIL library: CIL module
 0001:00004ca0       ?catch$0@?0???$?6U?$char_traits@D@std@@@std@@YAAEAV?$basic_ostream@DU?$char_traits@D@std@@@0@AEAV10@PEBD@Z@4HA 0000000180005ca0 f    CIL library: CIL module
 0001:00004cad       __catch$??$?6U?$char_traits@D@std@@@std@@YAAEAV?$basic_ostream@DU?$char_traits@D@std@@@0@AEAV10@PEBD@Z$0 0000000180005cad f    CIL library: CIL module
 0001:00004ce0       ?dtor$2@?0???$?6U?$char_traits@D@std@@@std@@YAAEAV?$basic_ostream@DU?$char_traits@D@std@@@0@AEAV10@PEBD@Z@4HA 0000000180005ce0 f    CIL library: CIL module
 0001:00004cf0       ?catch$0@?0??reserve@?$vector@MV?$allocator@M@std@@@std@@QEAAX_K@Z@4HA 0000000180005cf0 f    CIL library: CIL module
 0001:00004cf0       ?catch$0@?0??reserve@?$vector@HV?$allocator@H@std@@@std@@QEAAX_K@Z@4HA 0000000180005cf0 f    CIL library: CIL module
 0001:00004cfd       __catch$?reserve@?$vector@HV?$allocator@H@std@@@std@@QEAAX_K@Z$0 0000000180005cfd f    CIL library: CIL module
 0001:00004cfd       __catch$?reserve@?$vector@MV?$allocator@M@std@@@std@@QEAAX_K@Z$0 0000000180005cfd f    CIL library: CIL module
 0001:00004d20       ?catch$0@?0??reserve@?$vector@EV?$allocator@E@std@@@std@@QEAAX_K@Z@4HA 0000000180005d20 f    CIL library: CIL module
 0001:00004d2d       __catch$?reserve@?$vector@EV?$allocator@E@std@@@std@@QEAAX_K@Z$0 0000000180005d2d f    CIL library: CIL module
 0001:00004d50       ?catch$0@?0??_Construct_n@?$vector@HV?$allocator@H@std@@@std@@QEAAX_KPEBH@Z@4HA 0000000180005d50 f    CIL library: CIL module
 0001:00004d50       ?catch$0@?0??_Construct_n@?$vector@MV?$allocator@M@std@@@std@@QEAAX_KPEBM@Z@4HA 0000000180005d50 f    CIL library: CIL module
 0001:00004d5e       __catch$?_Construct_n@?$vector@HV?$allocator@H@std@@@std@@QEAAX_KPEBH@Z$0 0000000180005d5e f    CIL library: CIL module
 0001:00004d5e       __catch$?_Construct_n@?$vector@MV?$allocator@M@std@@@std@@QEAAX_KPEBM@Z$0 0000000180005d5e f    CIL library: CIL module
 0001:00004da0       ?dtor$0@?0??bokehProbability@@YAXPEAUimageData@@@Z@4HA 0000000180005da0 f    CIL library: CIL module
 0001:00004db0       ?dtor$1@?0??bokehProbability@@YAXPEAUimageData@@@Z@4HA 0000000180005db0 f    CIL library: CIL module
 0001:00004dc0       ?dtor$2@?0??bokehProbability@@YAXPEAUimageData@@@Z@4HA 0000000180005dc0 f    CIL library: CIL module
 0001:00004dd0       ?dtor$3@?0??bokehProbability@@YAXPEAUimageData@@@Z@4HA 0000000180005dd0 f    CIL library: CIL module
 0001:00004de0       ?catch$1@?0??_Copy@?$basic_string@DU?$char_traits@D@std@@V?$allocator@D@2@@std@@QEAAX_K0@Z@4HA 0000000180005de0 f    CIL library: CIL module
 0001:00004ded       __catch$?_Copy@?$basic_string@DU?$char_traits@D@std@@V?$allocator@D@2@@std@@QEAAX_K0@Z$0 0000000180005ded f    CIL library: CIL module
 0001:00004e20       ?catch$0@?0??_Copy@?$basic_string@DU?$char_traits@D@std@@V?$allocator@D@2@@std@@QEAAX_K0@Z@4HA 0000000180005e20 f    CIL library: CIL module
 0001:00004e2e       __catch$?_Copy@?$basic_string@DU?$char_traits@D@std@@V?$allocator@D@2@@std@@QEAAX_K0@Z$1 0000000180005e2e f    CIL library: CIL module
 0001:00004e60       ?dtor$1@?0??readImage@@YAPEAUimageData@@PEBD@Z@4HA 0000000180005e60 f    CIL library: CIL module
